; Function Attrs: mustprogress uwtable
define void @_Z26gmx_tng_prepare_md_writingP18gmx_tng_trajectoryPK10gmx_mtop_tPK10t_inputrec(ptr noundef captures(none) %0, ptr noundef %1, ptr noundef readonly captures(none) %2) local_unnamed_addr #0 {
  tail call void @_Z16gmx_tng_add_mtopP18gmx_tng_trajectoryPK10gmx_mtop_t(ptr noundef %0, ptr noundef %1)
  tail call fastcc void @_ZL21set_writing_intervalsP18gmx_tng_trajectorybPK10t_inputrec(ptr noundef %0, i1 noundef zeroext false, ptr noundef %2)
  %4 = load ptr, ptr %0, align 8, !tbaa !41
  %5 = getelementptr inbounds nuw i8, ptr %2, i64 88
  %6 = load double, ptr %5, align 8, !tbaa !156
  %7 = fmul double %6, 0x3D719799812DEA11
  %8 = tail call i32 @tng_time_per_frame_set(ptr noundef %4, double noundef %7)
  %9 = getelementptr inbounds nuw i8, ptr %0, i64 40
  store i8 1, ptr %9, align 8, !tbaa !17
  ret void
}